target datalayout = "e-m:e-p270:32:32-p271:32:32-p272:64:64-i64:64-i128:128-f80:128-n8:16:32:64-S128"
target triple = "x86_64-pc-linux-gnu"

%union.anon.2 = type { ptr }

; Function Attrs: nounwind uwtable
define i32 @H5LTget_dataset_ndims(i64 noundef %0, ptr noundef %1, ptr noundef %2) #0 {
  %4 = alloca i32, align 4
  %5 = alloca i64, align 8
  %6 = alloca ptr, align 8
  %7 = alloca ptr, align 8
  %8 = alloca i64, align 8
  %9 = alloca i64, align 8
  %10 = alloca i32, align 4
  %11 = alloca i32, align 4
  %12 = alloca %union.anon.2, align 8
  %13 = alloca ptr, align 8
  store i64 %0, ptr %5, align 8, !tbaa !3
  store ptr %1, ptr %6, align 8, !tbaa !7
  store ptr %2, ptr %7, align 8, !tbaa !22
  call void @llvm.lifetime.start.p0(i64 8, ptr %8) #11
  store i64 -1, ptr %8, align 8, !tbaa !3
  call void @llvm.lifetime.start.p0(i64 8, ptr %9) #11
  store i64 -1, ptr %9, align 8, !tbaa !3
  %14 = load ptr, ptr %6, align 8, !tbaa !7
  %15 = icmp eq ptr %14, null
  br i1 %15, label %16, label %17

16:                                               ; preds = %3
  store i32 -1, ptr %4, align 4
  store i32 1, ptr %10, align 4
  br label %71

17:                                               ; preds = %3
  %18 = load i64, ptr %5, align 8, !tbaa !3
  %19 = load ptr, ptr %6, align 8, !tbaa !7
  %20 = call i64 @H5Dopen2(i64 noundef %18, ptr noundef %19, i64 noundef 0)
  store i64 %20, ptr %8, align 8, !tbaa !3
  %21 = icmp slt i64 %20, 0
  br i1 %21, label %22, label %23

22:                                               ; preds = %17
  store i32 -1, ptr %4, align 4
  store i32 1, ptr %10, align 4
  br label %71

23:                                               ; preds = %17
  %24 = load i64, ptr %8, align 8, !tbaa !3
  %25 = call i64 @H5Dget_space(i64 noundef %24)
  store i64 %25, ptr %9, align 8, !tbaa !3
  %26 = icmp slt i64 %25, 0
  br i1 %26, label %27, label %28

27:                                               ; preds = %23
  br label %45

28:                                               ; preds = %23
  %29 = load i64, ptr %9, align 8, !tbaa !3
  %30 = call i32 @H5Sget_simple_extent_ndims(i64 noundef %29)
  %31 = load ptr, ptr %7, align 8, !tbaa !22
  store i32 %30, ptr %31, align 4, !tbaa !10
  %32 = icmp slt i32 %30, 0
  br i1 %32, label %33, label %34

33:                                               ; preds = %28
  br label %45

34:                                               ; preds = %28
  %35 = load i64, ptr %9, align 8, !tbaa !3
  %36 = call i32 @H5Sclose(i64 noundef %35)
  %37 = icmp slt i32 %36, 0
  br i1 %37, label %38, label %39

38:                                               ; preds = %34
  br label %45

39:                                               ; preds = %34
  %40 = load i64, ptr %8, align 8, !tbaa !3
  %41 = call i32 @H5Dclose(i64 noundef %40)
  %42 = icmp ne i32 %41, 0
  br i1 %42, label %43, label %44

43:                                               ; preds = %39
  store i32 -1, ptr %4, align 4
  store i32 1, ptr %10, align 4
  br label %71

44:                                               ; preds = %39
  store i32 0, ptr %4, align 4
  store i32 1, ptr %10, align 4
  br label %71

45:                                               ; preds = %38, %33, %27
  call void @llvm.lifetime.start.p0(i64 4, ptr %11) #11
  call void @llvm.lifetime.start.p0(i64 8, ptr %12) #11
  call void @llvm.lifetime.start.p0(i64 8, ptr %13) #11
  %46 = call i32 @H5Eauto_is_v2(i64 noundef 0, ptr noundef %11)
  %47 = load i32, ptr %11, align 4, !tbaa !10
  %48 = icmp ne i32 %47, 0
  br i1 %48, label %49, label %52

49:                                               ; preds = %45
  %50 = call i32 @H5Eget_auto2(i64 noundef 0, ptr noundef %12, ptr noundef %13)
  %51 = call i32 @H5Eset_auto2(i64 noundef 0, ptr noundef null, ptr noundef null)
  br label %55

52:                                               ; preds = %45
  %53 = call i32 @H5Eget_auto1(ptr noundef %12, ptr noundef %13)
  %54 = call i32 @H5Eset_auto1(ptr noundef null, ptr noundef null)
  br label %55

55:                                               ; preds = %52, %49
  %56 = load i64, ptr %8, align 8, !tbaa !3
  %57 = call i32 @H5Dclose(i64 noundef %56)
  %58 = load i64, ptr %9, align 8, !tbaa !3
  %59 = call i32 @H5Sclose(i64 noundef %58)
  %60 = load i32, ptr %11, align 4, !tbaa !10
  %61 = icmp ne i32 %60, 0
  br i1 %61, label %62, label %66

62:                                               ; preds = %55
  %63 = load ptr, ptr %12, align 8, !tbaa !15
  %64 = load ptr, ptr %13, align 8, !tbaa !14
  %65 = call i32 @H5Eset_auto2(i64 noundef 0, ptr noundef %63, ptr noundef %64)
  br label %70

66:                                               ; preds = %55
  %67 = load ptr, ptr %12, align 8, !tbaa !15
  %68 = load ptr, ptr %13, align 8, !tbaa !14
  %69 = call i32 @H5Eset_auto1(ptr noundef %67, ptr noundef %68)
  br label %70

70:                                               ; preds = %66, %62
  call void @llvm.lifetime.end.p0(i64 8, ptr %13) #11
  call void @llvm.lifetime.end.p0(i64 8, ptr %12) #11
  call void @llvm.lifetime.end.p0(i64 4, ptr %11) #11
  store i32 -1, ptr %4, align 4
  store i32 1, ptr %10, align 4
  br label %71

71:                                               ; preds = %70, %44, %43, %22, %16
  call void @llvm.lifetime.end.p0(i64 8, ptr %9) #11
  call void @llvm.lifetime.end.p0(i64 8, ptr %8) #11
  %72 = load i32, ptr %4, align 4
  ret i32 %72
}