; Function Attrs: nounwind uwtable
define range(i32 -1, 1) i32 @H5LTget_dataset_ndims(i64 noundef %0, ptr noundef %1, ptr noundef writeonly captures(none) %2) local_unnamed_addr #0 {
  %4 = alloca i32, align 4
  %5 = alloca %union.anon.2, align 8
  %6 = alloca ptr, align 8
  %7 = icmp eq ptr %1, null
  br i1 %7, label %42, label %8

8:                                                ; preds = %3
  %9 = tail call i64 @H5Dopen2(i64 noundef %0, ptr noundef nonnull %1, i64 noundef 0) #20
  %10 = icmp slt i64 %9, 0
  br i1 %10, label %42, label %11

11:                                               ; preds = %8
  %12 = tail call i64 @H5Dget_space(i64 noundef %9) #20
  %13 = icmp slt i64 %12, 0
  br i1 %13, label %22, label %14

14:                                               ; preds = %11
  %15 = tail call i32 @H5Sget_simple_extent_ndims(i64 noundef %12) #20
  store i32 %15, ptr %2, align 4, !tbaa !3
  %16 = icmp slt i32 %15, 0
  br i1 %16, label %22, label %17

17:                                               ; preds = %14
  %18 = tail call i32 @H5Sclose(i64 noundef %12) #20
  %19 = icmp slt i32 %18, 0
  br i1 %19, label %22, label %20

20:                                               ; preds = %17
  %21 = tail call i32 @H5Dclose(i64 noundef %9) #20
  %.not = icmp ne i32 %21, 0
  %. = sext i1 %.not to i32
  br label %42

22:                                               ; preds = %17, %14, %11
  call void @llvm.lifetime.start.p0(i64 4, ptr nonnull %4) #20
  call void @llvm.lifetime.start.p0(i64 8, ptr nonnull %5) #20
  call void @llvm.lifetime.start.p0(i64 8, ptr nonnull %6) #20
  %23 = call i32 @H5Eauto_is_v2(i64 noundef 0, ptr noundef nonnull %4) #20
  %24 = load i32, ptr %4, align 4, !tbaa !3
  %.not13 = icmp eq i32 %24, 0
  br i1 %.not13, label %28, label %25

25:                                               ; preds = %22
  %26 = call i32 @H5Eget_auto2(i64 noundef 0, ptr noundef nonnull %5, ptr noundef nonnull %6) #20
  %27 = call i32 @H5Eset_auto2(i64 noundef 0, ptr noundef null, ptr noundef null) #20
  br label %31

28:                                               ; preds = %22
  %29 = call i32 @H5Eget_auto1(ptr noundef nonnull %5, ptr noundef nonnull %6) #20
  %30 = call i32 @H5Eset_auto1(ptr noundef null, ptr noundef null) #20
  br label %31

31:                                               ; preds = %28, %25
  %32 = call i32 @H5Dclose(i64 noundef %9) #20
  %33 = call i32 @H5Sclose(i64 noundef %12) #20
  %34 = load i32, ptr %4, align 4, !tbaa !3
  %.not14 = icmp eq i32 %34, 0
  %35 = load ptr, ptr %5, align 8, !tbaa !7
  %36 = load ptr, ptr %6, align 8, !tbaa !8
  br i1 %.not14, label %39, label %37

37:                                               ; preds = %31
  %38 = call i32 @H5Eset_auto2(i64 noundef 0, ptr noundef %35, ptr noundef %36) #20
  br label %41

39:                                               ; preds = %31
  %40 = call i32 @H5Eset_auto1(ptr noundef %35, ptr noundef %36) #20
  br label %41

41:                                               ; preds = %39, %37
  call void @llvm.lifetime.end.p0(i64 8, ptr nonnull %6) #20
  call void @llvm.lifetime.end.p0(i64 8, ptr nonnull %5) #20
  call void @llvm.lifetime.end.p0(i64 4, ptr nonnull %4) #20
  br label %42

42:                                               ; preds = %20, %8, %3, %41
  %.0 = phi i32 [ -1, %41 ], [ -1, %3 ], [ -1, %8 ], [ %., %20 ]
  ret i32 %.0
}